target datalayout = "e-m:e-p270:32:32-p271:32:32-p272:64:64-i64:64-i128:128-f80:128-n8:16:32:64-S128"
target triple = "x86_64-pc-linux-gnu"

@AdaptiveSizeDecrementScaleFactor = external global i64, align 8
@TenuredGenerationSizeIncrement = external global i32, align 4

; Function Attrs: mustprogress nounwind uwtable
define hidden noundef i64 @_ZN18AdaptiveSizePolicy15promo_incrementEmj(ptr noundef nonnull align 8 dereferenceable(232) %0, i64 noundef %1, i32 noundef %2) #1 align 2 {
  %4 = alloca ptr, align 8
  %5 = alloca i64, align 8
  %6 = alloca i32, align 4
  %7 = alloca i64, align 8
  store ptr %0, ptr %4, align 8
  store i64 %1, ptr %5, align 8
  store i32 %2, ptr %6, align 4
  %8 = load i64, ptr %5, align 8
  %9 = udiv i64 %8, 100
  %10 = load i32, ptr %6, align 4
  %11 = zext i32 %10 to i64
  %12 = mul i64 %9, %11
  store i64 %12, ptr %7, align 8
  %13 = load i64, ptr %7, align 8
  ret i64 %13
}

; Function Attrs: mustprogress nounwind uwtable
define hidden noundef i64 @_ZN18AdaptiveSizePolicy15promo_incrementEm(ptr noundef nonnull align 8 dereferenceable(232) %0, i64 noundef %1) #1 align 2 {
  %3 = alloca ptr, align 8
  %4 = alloca i64, align 8
  store ptr %0, ptr %3, align 8
  store i64 %1, ptr %4, align 8
  %5 = load ptr, ptr %3, align 8
  %6 = load i64, ptr %4, align 8
  %7 = load i32, ptr @TenuredGenerationSizeIncrement, align 4
  %8 = call noundef i64 @_ZN18AdaptiveSizePolicy15promo_incrementEmj(ptr noundef nonnull align 8 dereferenceable(232) %5, i64 noundef %6, i32 noundef %7)
  ret i64 %8
}

; Function Attrs: mustprogress nounwind uwtable
define hidden noundef i64 @_ZN18AdaptiveSizePolicy15promo_decrementEm(ptr noundef nonnull align 8 dereferenceable(232) %0, i64 noundef %1) #1 align 2 {
  %3 = alloca ptr, align 8
  %4 = alloca i64, align 8
  %5 = alloca i64, align 8
  store ptr %0, ptr %3, align 8
  store i64 %1, ptr %4, align 8
  %6 = load ptr, ptr %3, align 8
  %7 = load i64, ptr %4, align 8
  %8 = call noundef i64 @_ZN18AdaptiveSizePolicy15promo_incrementEm(ptr noundef nonnull align 8 dereferenceable(232) %6, i64 noundef %7)
  store i64 %8, ptr %5, align 8
  %9 = load i64, ptr %5, align 8
  %10 = load i64, ptr @AdaptiveSizeDecrementScaleFactor, align 8
  %11 = udiv i64 %9, %10
  store i64 %11, ptr %5, align 8
  %12 = load i64, ptr %5, align 8
  ret i64 %12
}