; Function Attrs: mustprogress nofree norecurse nosync nounwind willreturn memory(read, argmem: none, inaccessiblemem: none) uwtable
define hidden noundef i64 @_ZN18AdaptiveSizePolicy15promo_decrementEm(ptr nocapture noundef nonnull readnone align 8 dereferenceable(232) %0, i64 noundef %1) local_unnamed_addr #4 align 2 {
  %3 = load i32, ptr @TenuredGenerationSizeIncrement, align 4
  %4 = udiv i64 %1, 100
  %5 = zext i32 %3 to i64
  %6 = mul i64 %4, %5
  %7 = load i64, ptr @AdaptiveSizeDecrementScaleFactor, align 8
  %8 = udiv i64 %6, %7
  ret i64 %8
}